; Function Attrs: mustprogress uwtable
define dso_local void @_ZN18ExpressionVariableC2ERKS_(ptr noundef nonnull align 8 dereferenceable(40) %0, ptr nocapture noundef nonnull readonly align 8 dereferenceable(40) %1) unnamed_addr #3 align 2 {
  tail call void @_ZN10ExpressionC2E9eTermType(ptr noundef nonnull align 8 dereferenceable(24) %0, i32 noundef 1)
  store ptr getelementptr inbounds ({ [24 x ptr] }, ptr @_ZTV18ExpressionVariable, i64 0, i32 0, i64 2), ptr %0, align 8
  %3 = getelementptr inbounds i8, ptr %0, i64 24
  %4 = getelementptr inbounds i8, ptr %1, i64 24
  %5 = load ptr, ptr %4, align 8
  store ptr %5, ptr %3, align 8
  %6 = getelementptr inbounds i8, ptr %0, i64 32
  %7 = getelementptr inbounds i8, ptr %1, i64 32
  %8 = load ptr, ptr %7, align 8
  store ptr %8, ptr %6, align 8
  ret void
}